; Function Attrs: mustprogress uwtable
define internal noundef zeroext i1 @_ZN4Luau12_GLOBAL__N_115FindExprOrLocal5visitEPNS_7AstExprE(ptr noundef nonnull align 8 dereferenceable(32) %0, ptr noundef %1) unnamed_addr #4 align 2 personality ptr @__gxx_personality_v0 {
  %3 = alloca %"struct.Luau::Location", align 8
  %4 = alloca %"class.std::optional.4", align 4
  %5 = getelementptr inbounds nuw i8, ptr %1, i64 12
  %.sroa.0.0.copyload = load i64, ptr %5, align 4
  %.sroa.2.0..sroa_idx = getelementptr inbounds nuw i8, ptr %1, i64 20
  %.sroa.2.0.copyload = load i64, ptr %.sroa.2.0..sroa_idx, align 4
  call void @llvm.lifetime.start.p0(i64 16, ptr nonnull %3)
  store i64 %.sroa.0.0.copyload, ptr %3, align 8
  %6 = getelementptr inbounds nuw i8, ptr %3, i64 8
  store i64 %.sroa.2.0.copyload, ptr %6, align 8
  call void @llvm.lifetime.start.p0(i64 20, ptr nonnull %4) #24
  %7 = getelementptr inbounds nuw i8, ptr %0, i64 16
  tail call void @llvm.experimental.noalias.scope.decl(metadata !230)
  %8 = load ptr, ptr %7, align 8, !tbaa !233, !noalias !230
  %.not.i.i = icmp eq ptr %8, null
  br i1 %.not.i.i, label %11, label %9

9:                                                ; preds = %2
  %10 = getelementptr inbounds nuw i8, ptr %8, i64 12
  br label %.sink.split.i.i

11:                                               ; preds = %2
  %12 = getelementptr inbounds nuw i8, ptr %0, i64 24
  %13 = load ptr, ptr %12, align 8, !tbaa !235, !noalias !230
  %.not2.i.i = icmp eq ptr %13, null
  br i1 %.not2.i.i, label %_ZN4Luau11ExprOrLocal11getLocationEv.exit.i, label %14

14:                                               ; preds = %11
  %15 = getelementptr inbounds nuw i8, ptr %13, i64 8
  br label %.sink.split.i.i

.sink.split.i.i:                                  ; preds = %14, %9
  %.sink4.i.i = phi ptr [ %15, %14 ], [ %10, %9 ]
  call void @llvm.memcpy.p0.p0.i64(ptr noundef nonnull align 4 dereferenceable(20) %4, ptr noundef nonnull align 4 dereferenceable(16) %.sink4.i.i, i64 16, i1 false)
  br label %_ZN4Luau11ExprOrLocal11getLocationEv.exit.i

_ZN4Luau11ExprOrLocal11getLocationEv.exit.i:      ; preds = %.sink.split.i.i, %11
  %16 = phi i8 [ 0, %11 ], [ 1, %.sink.split.i.i ]
  %17 = getelementptr inbounds nuw i8, ptr %4, i64 16
  store i8 %16, ptr %17, align 4, !tbaa !236, !alias.scope !230
  %18 = getelementptr inbounds nuw i8, ptr %0, i64 8
  %19 = call noundef zeroext i1 @_ZNK4Luau8Location8containsERKNS_8PositionE(ptr noundef nonnull align 4 dereferenceable(16) %3, ptr noundef nonnull align 4 dereferenceable(8) %18)
  br i1 %19, label %20, label %_ZN4Luau12_GLOBAL__N_115FindExprOrLocal13isCloserMatchENS_8LocationE.exit.thread4

_ZN4Luau12_GLOBAL__N_115FindExprOrLocal13isCloserMatchENS_8LocationE.exit.thread4: ; preds = %_ZN4Luau11ExprOrLocal11getLocationEv.exit.i
  call void @llvm.lifetime.end.p0(i64 20, ptr nonnull %4) #24
  call void @llvm.lifetime.end.p0(i64 16, ptr nonnull %3)
  br label %25

20:                                               ; preds = %_ZN4Luau11ExprOrLocal11getLocationEv.exit.i
  %21 = trunc nuw i8 %16 to i1
  br i1 %21, label %_ZN4Luau12_GLOBAL__N_115FindExprOrLocal13isCloserMatchENS_8LocationE.exit, label %_ZN4Luau12_GLOBAL__N_115FindExprOrLocal13isCloserMatchENS_8LocationE.exit.thread

_ZN4Luau12_GLOBAL__N_115FindExprOrLocal13isCloserMatchENS_8LocationE.exit.thread: ; preds = %20
  call void @llvm.lifetime.end.p0(i64 20, ptr nonnull %4) #24
  call void @llvm.lifetime.end.p0(i64 16, ptr nonnull %3)
  br label %23

_ZN4Luau12_GLOBAL__N_115FindExprOrLocal13isCloserMatchENS_8LocationE.exit: ; preds = %20
  %22 = call noundef zeroext i1 @_ZNK4Luau8Location8enclosesERKS0_(ptr noundef nonnull align 4 dereferenceable(16) %4, ptr noundef nonnull align 4 dereferenceable(16) %3)
  call void @llvm.lifetime.end.p0(i64 20, ptr nonnull %4) #24
  call void @llvm.lifetime.end.p0(i64 16, ptr nonnull %3)
  br i1 %22, label %23, label %25

23:                                               ; preds = %_ZN4Luau12_GLOBAL__N_115FindExprOrLocal13isCloserMatchENS_8LocationE.exit.thread, %_ZN4Luau12_GLOBAL__N_115FindExprOrLocal13isCloserMatchENS_8LocationE.exit
  store ptr %1, ptr %7, align 8, !tbaa !233
  %24 = getelementptr inbounds nuw i8, ptr %0, i64 24
  store ptr null, ptr %24, align 8, !tbaa !235
  br label %25

25:                                               ; preds = %_ZN4Luau12_GLOBAL__N_115FindExprOrLocal13isCloserMatchENS_8LocationE.exit.thread4, %_ZN4Luau12_GLOBAL__N_115FindExprOrLocal13isCloserMatchENS_8LocationE.exit, %23
  %26 = phi i1 [ false, %_ZN4Luau12_GLOBAL__N_115FindExprOrLocal13isCloserMatchENS_8LocationE.exit ], [ true, %23 ], [ false, %_ZN4Luau12_GLOBAL__N_115FindExprOrLocal13isCloserMatchENS_8LocationE.exit.thread4 ]
  ret i1 %26
}